TN:
SF:/home/aheguy/laba05/_build/_deps/googletest-src/googlemock/include/gmock/gmock-actions.h
FNL:0,1257,1259
FNA:0,2,_ZNK7testing8internal15DoDefaultActioncvNS_6ActionIT_EEIFvvEEEv
FNL:1,1905,1907
FNA:1,2,_ZN7testing9DoDefaultEv
FNL:2,255,255
FNA:2,0,_ZN7testing8internal19BuiltInDefaultValueIiE3GetEv
FNA:2,0,_ZN7testing8internal19BuiltInDefaultValueIiE6ExistsEv
FNL:3,598,598
FNA:3,0,_ZN7testing12DefaultValueIiE5IsSetEv
FNL:4,602,604
FNA:4,0,_ZN7testing12DefaultValueIiE6ExistsEv
FNL:5,609,612
FNA:5,0,_ZN7testing12DefaultValueIiE3GetEv
FNL:6,686,686
FNA:6,3,_ZN7testing12DefaultValueIvE6ExistsEv
FNL:7,687,687
FNA:7,3,_ZN7testing12DefaultValueIvE3GetEv
FNL:8,755,755
FNA:8,2,_ZN7testing6ActionIFvvEEC2Ev
FNL:9,781,781
FNA:9,0,_ZNK7testing6ActionIFivEE11IsDoDefaultEv
FNA:9,0,_ZNK7testing6ActionIFviEE11IsDoDefaultEv
FNA:9,3,_ZNK7testing6ActionIFvvEE11IsDoDefaultEv
FNL:10,789,794
FNA:10,0,_ZNK7testing6ActionIFivEE7PerformESt5tupleIJEE
FNA:10,0,_ZNK7testing6ActionIFviEE7PerformESt5tupleIJiEE
FNA:10,0,_ZNK7testing6ActionIFvvEE7PerformESt5tupleIJEE
FNF:11
FNH:6
DA:255,0
DA:598,0
DA:602,0
DA:603,0
DA:609,0
DA:610,0
DA:611,0
DA:686,3
DA:687,3
DA:755,2
DA:781,3
DA:789,0
DA:790,0
DA:791,0
DA:793,0
DA:1257,2
DA:1258,2
DA:1905,2
DA:1906,2
LF:19
LH:8
end_of_record
TN:
SF:/home/aheguy/laba05/_build/_deps/googletest-src/googlemock/include/gmock/gmock-cardinalities.h
FNL:0,113,115
FNA:0,6,_ZNK7testing11Cardinality22IsSaturatedByCallCountEi
FNF:1
FNH:1
DA:113,6
DA:114,6
LF:2
LH:2
end_of_record
TN:
SF:/home/aheguy/laba05/_build/_deps/googletest-src/googlemock/include/gmock/gmock-matchers.h
FNL:0,305,305
FNA:0,0,_ZN7testing25StringMatchResultListenerC2Ev
FNL:1,308,308
FNA:1,0,_ZNK7testing25StringMatchResultListener3strB5cxx11Ev
FNL:2,4234,4236
FNA:2,2,_ZN7testing1AIRKSt5tupleIJEEEENS_7MatcherIT_EEv
FNL:3,562,567
FNA:3,0,_ZN7testing8internal15PrintIfNotEmptyERKNSt7__cxx1112basic_stringIcSt11char_traitsIcESaIcEEEPSo
FNL:4,616,620
FNA:4,0,_ZN7testing8internal11TuplePrefixILm1EE7MatchesISt5tupleIJNS_7MatcherIiEEEES4_IJiEEEEbRKT_RKT0_
FNL:5,627,653
FNA:5,0,_ZN7testing8internal11TuplePrefixILm1EE22ExplainMatchFailuresToISt5tupleIJNS_7MatcherIiEEEES4_IJiEEEEvRKT_RKT0_PSo
FNL:6,661,664
FNA:6,3,_ZN7testing8internal11TuplePrefixILm0EE7MatchesISt5tupleIJEES5_EEbRKT_RKT0_
FNA:6,0,_ZN7testing8internal11TuplePrefixILm0EE7MatchesISt5tupleIJNS_7MatcherIiEEEES4_IJiEEEEbRKT_RKT0_
FNL:7,667,669
FNA:7,0,_ZN7testing8internal11TuplePrefixILm0EE22ExplainMatchFailuresToISt5tupleIJEES5_EEvRKT_RKT0_PSo
FNA:7,0,_ZN7testing8internal11TuplePrefixILm0EE22ExplainMatchFailuresToISt5tupleIJNS_7MatcherIiEEEES4_IJiEEEEvRKT_RKT0_PSo
FNL:8,678,687
FNA:8,3,_ZN7testing8internal12TupleMatchesISt5tupleIJEES3_EEbRKT_RKT0_
FNA:8,0,_ZN7testing8internal12TupleMatchesISt5tupleIJNS_7MatcherIiEEEES2_IJiEEEEbRKT_RKT0_
FNL:9,692,696
FNA:9,0,_ZN7testing8internal26ExplainMatchFailureTupleToISt5tupleIJEES3_EEvRKT_RKT0_PSo
FNA:9,0,_ZN7testing8internal26ExplainMatchFailureTupleToISt5tupleIJNS_7MatcherIiEEEES2_IJiEEEEvRKT_RKT0_PSo
FNL:10,747,749
FNA:10,3,_ZNK7testing8internal15AnythingMatcher15MatchAndExplainISt5tupleIJEEEEbRKT_PSo
FNL:11,750,750
FNA:11,0,_ZNK7testing8internal15AnythingMatcher10DescribeToEPSo
FNL:12,751,756
FNA:12,0,_ZNK7testing8internal15AnythingMatcher18DescribeNegationToEPSo
FNF:13
FNH:4
DA:305,0
DA:308,0
DA:562,0
DA:564,0
DA:565,0
DA:567,0
DA:616,0
DA:618,0
DA:619,0
DA:627,0
DA:631,0
DA:635,0
DA:636,0
DA:638,0
DA:639,0
DA:640,0
DA:641,0
DA:642,0
DA:643,0
DA:649,0
DA:650,0
DA:651,0
DA:653,0
DA:661,3
DA:663,3
DA:667,0
DA:669,0
DA:678,3
DA:685,3
DA:686,3
DA:692,0
DA:694,0
DA:696,0
DA:747,3
DA:748,3
DA:750,0
DA:751,0
DA:755,0
DA:756,0
DA:4234,2
DA:4235,2
LF:41
LH:9
end_of_record
TN:
SF:/home/aheguy/laba05/_build/_deps/googletest-src/googlemock/include/gmock/gmock-spec-builders.h
FNL:0,1059,1059
FNA:0,0,_ZNK7testing8internal16TypedExpectationIFivEE15repeated_actionEv
FNA:0,0,_ZNK7testing8internal16TypedExpectationIFviEE15repeated_actionEv
FNA:0,3,_ZNK7testing8internal16TypedExpectationIFvvEE15repeated_actionEv
FNL:1,1063,1069
FNA:1,0,_ZN7testing8internal16TypedExpectationIFvvEE27MaybeDescribeExtraMatcherToEPSo
FNL:2,1087,1087
FNA:2,0,_ZN7testing8internal16TypedExpectationIFvvEE9GetHandleEv
FNL:3,1094,1098
FNA:3,0,_ZNK7testing8internal16TypedExpectationIFivEE7MatchesERKSt5tupleIJEE
FNA:3,0,_ZNK7testing8internal16TypedExpectationIFviEE7MatchesERKSt5tupleIJiEE
FNA:3,3,_ZNK7testing8internal16TypedExpectationIFvvEE7MatchesERKSt5tupleIJEE
FNL:4,1102,1112
FNA:4,0,_ZNK7testing8internal16TypedExpectationIFivEE21ShouldHandleArgumentsERKSt5tupleIJEE
FNA:4,0,_ZNK7testing8internal16TypedExpectationIFviEE21ShouldHandleArgumentsERKSt5tupleIJiEE
FNA:4,3,_ZNK7testing8internal16TypedExpectationIFvvEE21ShouldHandleArgumentsERKSt5tupleIJEE
FNL:5,1116,1156
FNA:5,0,_ZNK7testing8internal16TypedExpectationIFivEE20ExplainMatchResultToERKSt5tupleIJEEPSo
FNA:5,0,_ZNK7testing8internal16TypedExpectationIFviEE20ExplainMatchResultToERKSt5tupleIJiEEPSo
FNA:5,0,_ZNK7testing8internal16TypedExpectationIFvvEE20ExplainMatchResultToERKSt5tupleIJEEPSo
FNL:6,1159,1187
FNA:6,0,_ZNK7testing8internal16TypedExpectationIFivEE16GetCurrentActionEPKNS0_14FunctionMockerIS2_EERKSt5tupleIJEE
FNA:6,0,_ZNK7testing8internal16TypedExpectationIFviEE16GetCurrentActionEPKNS0_14FunctionMockerIS2_EERKSt5tupleIJiEE
FNA:6,3,_ZNK7testing8internal16TypedExpectationIFvvEE16GetCurrentActionEPKNS0_14FunctionMockerIS2_EERKSt5tupleIJEE
FNL:7,1196,1222
FNA:7,0,_ZN7testing8internal16TypedExpectationIFivEE21GetActionForArgumentsEPKNS0_14FunctionMockerIS2_EERKSt5tupleIJEEPSoSC_
FNA:7,0,_ZN7testing8internal16TypedExpectationIFviEE21GetActionForArgumentsEPKNS0_14FunctionMockerIS2_EERKSt5tupleIJiEEPSoSC_
FNA:7,3,_ZN7testing8internal16TypedExpectationIFvvEE21GetActionForArgumentsEPKNS0_14FunctionMockerIS2_EERKSt5tupleIJEEPSoSC_
FNL:8,1259,1261
FNA:8,2,_ZN7testing8internal8MockSpecIFvvEEC2EPNS0_14FunctionMockerIS2_EERKSt5tupleIJEE
FNL:9,1275,1283
FNA:9,2,_ZN7testing8internal8MockSpecIFvvEE18InternalExpectedAtEPKciS5_S5_
FNL:10,1288,1290
FNA:10,2,_ZN7testing8internal8MockSpecIFvvEEclERKNS0_15WithoutMatchersEPv
FNL:11,1350,1354
FNA:11,0,_ZN7testing8internal19PrintAsActionResultIiEEvRKT_RSo
FNL:12,1364,1364
FNA:12,0,_ZN7testing8internal7CleanupC2ESt8functionIFvvEE
FNL:13,1365,1365
FNA:13,0,_ZN7testing8internal7CleanupD2Ev
FNL:14,1383,1383
FNA:14,1,_ZN7testing8internal14FunctionMockerIFivEEC2Ev
FNA:14,1,_ZN7testing8internal14FunctionMockerIFviEEC2Ev
FNA:14,2,_ZN7testing8internal14FunctionMockerIFvvEEC2Ev
FNL:15,1403,1408
FNA:15,0,_ZN7testing8internal14FunctionMockerIFivEED0Ev
FNA:15,1,_ZN7testing8internal14FunctionMockerIFivEED2Ev
FNA:15,0,_ZN7testing8internal14FunctionMockerIFviEED0Ev
FNA:15,1,_ZN7testing8internal14FunctionMockerIFviEED2Ev
FNA:15,0,_ZN7testing8internal14FunctionMockerIFvvEED0Ev
FNA:15,2,_ZN7testing8internal14FunctionMockerIFvvEED2Ev
FNL:16,1413,1422
FNA:16,0,_ZNK7testing8internal14FunctionMockerIFivEE14FindOnCallSpecERKSt5tupleIJEE
FNA:16,0,_ZNK7testing8internal14FunctionMockerIFviEE14FindOnCallSpecERKSt5tupleIJiEE
FNA:16,3,_ZNK7testing8internal14FunctionMockerIFvvEE14FindOnCallSpecERKSt5tupleIJEE
FNL:17,1431,1449
FNA:17,0,_ZNK7testing8internal14FunctionMockerIFivEE20PerformDefaultActionEOSt5tupleIJEERKNSt7__cxx1112basic_stringIcSt11char_traitsIcESaIcEEE
FNA:17,0,_ZNK7testing8internal14FunctionMockerIFviEE20PerformDefaultActionEOSt5tupleIJiEERKNSt7__cxx1112basic_stringIcSt11char_traitsIcESaIcEEE
FNA:17,3,_ZNK7testing8internal14FunctionMockerIFvvEE20PerformDefaultActionEOSt5tupleIJEERKNSt7__cxx1112basic_stringIcSt11char_traitsIcESaIcEEE
FNL:18,1453,1476
FNA:18,1,_ZN7testing8internal14FunctionMockerIFivEE25ClearDefaultActionsLockedEv
FNA:18,1,_ZN7testing8internal14FunctionMockerIFviEE25ClearDefaultActionsLockedEv
FNA:18,2,_ZN7testing8internal14FunctionMockerIFvvEE25ClearDefaultActionsLockedEv
FNL:19,1481,1483
FNA:19,0,_ZN7testing8internal14FunctionMockerIFivEE6InvokeEv
FNA:19,0,_ZN7testing8internal14FunctionMockerIFviEE6InvokeEi
FNA:19,3,_ZN7testing8internal14FunctionMockerIFvvEE6InvokeEv
FNL:20,1485,1487
FNA:20,2,_ZN7testing8internal14FunctionMockerIFvvEE4WithEv
FNL:21,1504,1523
FNA:21,2,_ZN7testing8internal14FunctionMockerIFvvEE17AddNewExpectationEPKciRKNSt7__cxx1112basic_stringIcSt11char_traitsIcESaIcEEERKSt5tupleIJEE
FNL:22,1534,1545
FNA:22,0,_ZNK7testing8internal14FunctionMockerIFivEE23DescribeDefaultActionToERKSt5tupleIJEEPSo
FNA:22,0,_ZNK7testing8internal14FunctionMockerIFviEE23DescribeDefaultActionToERKSt5tupleIJiEEPSo
FNA:22,0,_ZNK7testing8internal14FunctionMockerIFvvEE23DescribeDefaultActionToERKSt5tupleIJEEPSo
FNL:23,1550,1559
FNA:23,0,_ZNK7testing8internal14FunctionMockerIFivEE32UntypedDescribeUninterestingCallEPKvPSo
FNA:23,0,_ZNK7testing8internal14FunctionMockerIFviEE32UntypedDescribeUninterestingCallEPKvPSo
FNA:23,0,_ZNK7testing8internal14FunctionMockerIFvvEE32UntypedDescribeUninterestingCallEPKvPSo
FNL:24,1577,1599
FNA:24,0,_ZN7testing8internal14FunctionMockerIFivEE30UntypedFindMatchingExpectationEPKvPS5_PbPSoS8_
FNA:24,0,_ZN7testing8internal14FunctionMockerIFviEE30UntypedFindMatchingExpectationEPKvPS5_PbPSoS8_
FNA:24,3,_ZN7testing8internal14FunctionMockerIFvvEE30UntypedFindMatchingExpectationEPKvPS5_PbPSoS8_
FNL:25,1602,1607
FNA:25,0,_ZNK7testing8internal14FunctionMockerIFivEE16UntypedPrintArgsEPKvPSo
FNA:25,0,_ZNK7testing8internal14FunctionMockerIFviEE16UntypedPrintArgsEPKvPSo
FNA:25,0,_ZNK7testing8internal14FunctionMockerIFvvEE16UntypedPrintArgsEPKvPSo
FNL:26,1611,1626
FNA:26,0,_ZNK7testing8internal14FunctionMockerIFivEE29FindMatchingExpectationLockedERKSt5tupleIJEE
FNA:26,0,_ZNK7testing8internal14FunctionMockerIFviEE29FindMatchingExpectationLockedERKSt5tupleIJiEE
FNA:26,3,_ZNK7testing8internal14FunctionMockerIFvvEE29FindMatchingExpectationLockedERKSt5tupleIJEE
FNL:27,1629,1637
FNA:27,0,_ZNK7testing8internal14FunctionMockerIFivEE33FormatUnexpectedCallMessageLockedERKSt5tupleIJEEPSoS8_
FNA:27,0,_ZNK7testing8internal14FunctionMockerIFviEE33FormatUnexpectedCallMessageLockedERKSt5tupleIJiEEPSoS8_
FNA:27,0,_ZNK7testing8internal14FunctionMockerIFvvEE33FormatUnexpectedCallMessageLockedERKSt5tupleIJEEPSoS8_
FNL:28,1641,1662
FNA:28,0,_ZNK7testing8internal14FunctionMockerIFivEE28PrintTriedExpectationsLockedERKSt5tupleIJEEPSo
FNA:28,0,_ZNK7testing8internal14FunctionMockerIFviEE28PrintTriedExpectationsLockedERKSt5tupleIJiEEPSo
FNA:28,0,_ZNK7testing8internal14FunctionMockerIFvvEE28PrintTriedExpectationsLockedERKSt5tupleIJEEPSo
FNL:29,1667,1677
FNA:29,0,_ZNK7testing8internal14FunctionMockerIFivEE13PerformActionEPKvOSt5tupleIJEERKNSt7__cxx1112basic_stringIcSt11char_traitsIcESaIcEEE
FNA:29,0,_ZNK7testing8internal14FunctionMockerIFviEE13PerformActionEPKvOSt5tupleIJiEERKNSt7__cxx1112basic_stringIcSt11char_traitsIcESaIcEEE
FNA:29,3,_ZNK7testing8internal14FunctionMockerIFvvEE13PerformActionEPKvOSt5tupleIJEERKNSt7__cxx1112basic_stringIcSt11char_traitsIcESaIcEEE
FNL:30,1692,1700
FNA:30,0,_ZN7testing8internal14FunctionMockerIFivEE27PerformActionAndPrintResultIiLi0EEEiPKvOSt5tupleIJEERKNSt7__cxx1112basic_stringIcSt11char_traitsIcESaIcEEERSo
FNL:31,1707,1712
FNA:31,0,_ZN7testing8internal14FunctionMockerIFviEE27PerformActionAndPrintResultIvLi0EEEvPKvOSt5tupleIJiEERKNSt7__cxx1112basic_stringIcSt11char_traitsIcESaIcEEERSo
FNA:31,0,_ZN7testing8internal14FunctionMockerIFvvEE27PerformActionAndPrintResultIvLi0EEEvPKvOSt5tupleIJEERKNSt7__cxx1112basic_stringIcSt11char_traitsIcESaIcEEERSo
FNL:32,1723,1833
FNA:32,0,_ZN7testing8internal14FunctionMockerIFivEE10InvokeWithEOSt5tupleIJEE
FNA:32,0,_ZN7testing8internal14FunctionMockerIFviEE10InvokeWithEOSt5tupleIJiEE
FNA:32,3,_ZN7testing8internal14FunctionMockerIFvvEE10InvokeWithEOSt5tupleIJEE
FNL:33,1770,1770
FNA:33,0,_ZZN7testing8internal14FunctionMockerIFivEE10InvokeWithEOSt5tupleIJEEENKUlvE_clEv
FNA:33,0,_ZZN7testing8internal14FunctionMockerIFviEE10InvokeWithEOSt5tupleIJiEEENKUlvE_clEv
FNA:33,0,_ZZN7testing8internal14FunctionMockerIFvvEE10InvokeWithEOSt5tupleIJEEENKUlvE_clEv
FNL:34,1814,1814
FNA:34,0,_ZZN7testing8internal14FunctionMockerIFivEE10InvokeWithEOSt5tupleIJEEENKUlvE0_clEv
FNA:34,0,_ZZN7testing8internal14FunctionMockerIFviEE10InvokeWithEOSt5tupleIJiEEENKUlvE0_clEv
FNA:34,0,_ZZN7testing8internal14FunctionMockerIFvvEE10InvokeWithEOSt5tupleIJEEENKUlvE0_clEv
FNL:35,242,242
FNA:35,0,_ZNK7testing8internal21UntypedOnCallSpecBase4fileEv
FNL:36,243,243
FNA:36,0,_ZNK7testing8internal21UntypedOnCallSpecBase4lineEv
FNL:37,256,259
FNA:37,0,_ZNK7testing8internal21UntypedOnCallSpecBase18AssertSpecPropertyEbRKNSt7__cxx1112basic_stringIcSt11char_traitsIcESaIcEEE
FNL:38,319,321
FNA:38,0,_ZNK7testing8internal10OnCallSpecIFivEE7MatchesERKSt5tupleIJEE
FNA:38,0,_ZNK7testing8internal10OnCallSpecIFviEE7MatchesERKSt5tupleIJiEE
FNA:38,0,_ZNK7testing8internal10OnCallSpecIFvvEE7MatchesERKSt5tupleIJEE
FNL:39,324,329
FNA:39,0,_ZNK7testing8internal10OnCallSpecIFivEE9GetActionEv
FNA:39,0,_ZNK7testing8internal10OnCallSpecIFviEE9GetActionEv
FNA:39,0,_ZNK7testing8internal10OnCallSpecIFvvEE9GetActionEv
FNL:40,535,537
FNA:40,0,_ZNK7testing11Expectation16expectation_baseEv
FNL:41,565,565
FNA:41,2,_ZN7testing14ExpectationSetC2Ev
FNL:42,601,601
FNA:42,6,_ZNK7testing14ExpectationSet5beginEv
FNL:43,602,602
FNA:43,6,_ZNK7testing14ExpectationSet3endEv
FNL:44,689,689
FNA:44,0,_ZNK7testing8internal15ExpectationBase4fileEv
FNL:45,690,690
FNA:45,0,_ZNK7testing8internal15ExpectationBase4lineEv
FNL:46,691,691
FNA:46,3,_ZNK7testing8internal15ExpectationBase11source_textEv
FNL:47,693,693
FNA:47,14,_ZNK7testing8internal15ExpectationBase11cardinalityEv
FNL:48,696,698
FNA:48,0,_ZNK7testing8internal15ExpectationBase18DescribeLocationToEPSo
FNL:49,764,767
FNA:49,6,_ZNK7testing8internal15ExpectationBase10is_retiredEv
FNL:50,770,773
FNA:50,0,_ZN7testing8internal15ExpectationBase6RetireEv
FNL:51,782,785
FNA:51,6,_ZNK7testing8internal15ExpectationBase11IsSaturatedEv
FNL:52,803,806
FNA:52,3,_ZNK7testing8internal15ExpectationBase10call_countEv
FNL:53,809,812
FNA:53,3,_ZN7testing8internal15ExpectationBase18IncrementCallCountEv
FNL:54,872,882
FNA:54,2,_ZN7testing8internal16TypedExpectationIFvvEEC2EPNS0_14FunctionMockerIS2_EEPKciRKNSt7__cxx1112basic_stringIcSt11char_traitsIcESaIcEEERKSt5tupleIJEE
FNL:55,884,892
FNA:55,2,_ZN7testing8internal16TypedExpectationIFvvEED0Ev
FNA:55,2,_ZN7testing8internal16TypedExpectationIFvvEED2Ev
FNL:56,913,916
FNA:56,2,_ZN7testing8internal16TypedExpectationIFvvEE5TimesERKNS_11CardinalityE
FNL:57,919,919
FNA:57,2,_ZN7testing8internal16TypedExpectationIFvvEE5TimesEi
FNF:58
FNH:33
DA:242,0
DA:243,0
DA:256,0
DA:258,0
DA:259,0
DA:319,0
DA:320,0
DA:324,0
DA:325,0
DA:326,0
DA:328,0
DA:535,0
DA:536,0
DA:565,2
DA:601,6
DA:602,6
DA:689,0
DA:690,0
DA:691,3
DA:693,14
DA:696,0
DA:697,0
DA:698,0
DA:764,6
DA:765,6
DA:766,6
DA:770,0
DA:771,0
DA:772,0
DA:773,0
DA:782,6
DA:783,6
DA:784,6
DA:803,3
DA:804,3
DA:805,3
DA:809,3
DA:810,3
DA:811,3
DA:812,3
DA:872,2
DA:876,2
DA:881,2
DA:882,2
DA:884,4
DA:887,2
DA:888,4
DA:889,4
DA:890,0
DA:892,6
DA:913,2
DA:914,2
DA:915,2
DA:919,2
DA:1059,3
DA:1063,0
DA:1064,0
DA:1065,0
DA:1066,0
DA:1067,0
DA:1069,0
DA:1087,0
DA:1094,3
DA:1096,3
DA:1097,3
DA:1102,3
DA:1104,3
DA:1110,3
DA:1111,3
DA:1116,0
DA:1118,0
DA:1120,0
DA:1122,0
DA:1123,0
DA:1124,0
DA:1125,0
DA:1127,0
DA:1128,0
DA:1129,0
DA:1130,0
DA:1131,0
DA:1133,0
DA:1134,0
DA:1136,0
DA:1139,0
DA:1140,0
DA:1141,0
DA:1142,0
DA:1143,0
DA:1144,0
DA:1145,0
DA:1146,0
DA:1148,0
DA:1149,0
DA:1154,0
DA:1156,0
DA:1159,3
DA:1162,3
DA:1163,3
DA:1164,3
DA:1165,6
DA:1168,3
DA:1169,3
DA:1173,0
DA:1174,0
DA:1176,0
DA:1178,0
DA:1179,0
DA:1180,0
DA:1181,0
DA:1184,3
DA:1185,0
DA:1186,6
DA:1196,3
DA:1201,3
DA:1202,3
DA:1204,0
DA:1205,0
DA:1206,0
DA:1207,0
DA:1209,0
DA:1212,3
DA:1213,3
DA:1215,3
DA:1216,0
DA:1220,3
DA:1221,3
DA:1259,2
DA:1261,2
DA:1275,2
DA:1278,2
DA:1280,2
DA:1281,4
DA:1282,4
DA:1283,2
DA:1288,2
DA:1289,2
DA:1350,0
DA:1351,0
DA:1353,0
DA:1354,0
DA:1364,0
DA:1365,0
DA:1383,4
DA:1403,4
DA:1404,4
DA:1405,4
DA:1406,4
DA:1407,4
DA:1408,8
DA:1413,3
DA:1414,3
DA:1416,3
DA:1417,0
DA:1418,0
DA:1421,3
DA:1431,3
DA:1433,3
DA:1434,3
DA:1435,0
DA:1437,3
DA:1442,3
DA:1443,0
DA:1448,3
DA:1449,3
DA:1453,4
DA:1455,4
DA:1464,4
DA:1465,4
DA:1467,4
DA:1468,8
DA:1469,8
DA:1470,0
DA:1475,4
DA:1476,4
DA:1481,3
DA:1482,3
DA:1485,2
DA:1486,2
DA:1504,2
DA:1508,2
DA:1509,2
DA:1510,2
DA:1511,2
DA:1514,2
DA:1517,2
DA:1518,2
DA:1519,0
DA:1522,2
DA:1523,2
DA:1534,0
DA:1536,0
DA:1538,0
DA:1539,0
DA:1543,0
DA:1545,0
DA:1550,0
DA:1553,0
DA:1555,0
DA:1556,0
DA:1557,0
DA:1558,0
DA:1559,0
DA:1577,3
DA:1581,3
DA:1583,3
DA:1584,3
DA:1585,3
DA:1586,0
DA:1587,0
DA:1593,3
DA:1594,3
DA:1595,3
DA:1596,3
DA:1597,3
DA:1598,3
DA:1599,3
DA:1602,0
DA:1604,0
DA:1606,0
DA:1607,0
DA:1611,3
DA:1613,3
DA:1616,3
DA:1618,3
DA:1620,3
DA:1621,3
DA:1622,3
DA:1625,0
DA:1629,0
DA:1633,0
DA:1634,0
DA:1635,0
DA:1636,0
DA:1637,0
DA:1641,0
DA:1644,0
DA:1645,0
DA:1646,0
DA:1649,0
DA:1650,0
DA:1652,0
DA:1653,0
DA:1654,0
DA:1655,0
DA:1656,0
DA:1658,0
DA:1659,0
DA:1660,0
DA:1662,0
DA:1667,3
DA:1669,3
DA:1670,3
DA:1675,0
DA:1676,0
DA:1677,0
DA:1692,0
DA:1696,0
DA:1698,0
DA:1699,0
DA:1707,0
DA:1711,0
DA:1723,3
DA:1727,3
DA:1735,0
DA:1736,0
DA:1741,0
DA:1744,0
DA:1747,0
DA:1748,0
DA:1754,0
DA:1756,0
DA:1757,0
DA:1761,0
DA:1762,0
DA:1769,0
DA:1770,0
DA:1772,0
DA:1773,0
DA:1775,3
DA:1776,3
DA:1777,3
DA:1778,3
DA:1779,3
DA:1784,3
DA:1785,3
DA:1787,3
DA:1793,3
DA:1794,3
DA:1795,3
DA:1797,9
DA:1800,0
DA:1801,0
DA:1805,0
DA:1806,0
DA:1814,0
DA:1815,0
DA:1817,0
DA:1819,0
DA:1820,0
DA:1822,0
DA:1823,0
DA:1827,0
DA:1831,0
DA:1832,0
DA:1833,3
LF:306
LH:144
end_of_record
TN:
SF:/home/aheguy/laba05/_build/_deps/googletest-src/googlemock/include/gmock/internal/gmock-internal-utils.h
FNL:0,228,234
FNA:0,5,_ZN7testing8internal6AssertEbPKciRKNSt7__cxx1112basic_stringIcSt11char_traitsIcESaIcEEE
FNL:1,241,247
FNA:1,2,_ZN7testing8internal6ExpectEbPKciRKNSt7__cxx1112basic_stringIcSt11char_traitsIcESaIcEEE
FNL:2,419,423
FNA:2,0,_ZN7testing8internal9ApplyImplIRKSt8functionIFivEESt5tupleIJEEJEEEDTclcl7forwardIT_Efp_Espcl3getIXT1_EEcl7forwardIT0_Efp0_EEEEOS9_OSA_NS0_13IndexSequenceIJXspT1_EEEE
FNA:2,0,_ZN7testing8internal9ApplyImplIRKSt8functionIFviEESt5tupleIJiEEJLm0EEEEDTclcl7forwardIT_Efp_Espcl3getIXT1_EEcl7forwardIT0_Efp0_EEEEOS9_OSA_NS0_13IndexSequenceIJXspT1_EEEE
FNA:2,0,_ZN7testing8internal9ApplyImplIRKSt8functionIFvvEESt5tupleIJEEJEEEDTclcl7forwardIT_Efp_Espcl3getIXT1_EEcl7forwardIT0_Efp0_EEEEOS9_OSA_NS0_13IndexSequenceIJXspT1_EEEE
FNL:3,427,434
FNA:3,0,_ZN7testing8internal5ApplyIRKSt8functionIFivEESt5tupleIJEEEEDTcl9ApplyImplcl7forwardIT_Efp_Ecl7forwardIT0_Efp0_EcvNS0_21MakeIndexSequenceImplIXsrSt10tuple_sizeINSt16remove_referenceISA_E4typeEE5valueEE4typeE_EEEOS9_OSA_
FNA:3,0,_ZN7testing8internal5ApplyIRKSt8functionIFviEESt5tupleIJiEEEEDTcl9ApplyImplcl7forwardIT_Efp_Ecl7forwardIT0_Efp0_EcvNS0_21MakeIndexSequenceImplIXsrSt10tuple_sizeINSt16remove_referenceISA_E4typeEE5valueEE4typeE_EEEOS9_OSA_
FNA:3,0,_ZN7testing8internal5ApplyIRKSt8functionIFvvEESt5tupleIJEEEEDTcl9ApplyImplcl7forwardIT_Efp_Ecl7forwardIT0_Efp0_EcvNS0_21MakeIndexSequenceImplIXsrSt10tuple_sizeINSt16remove_referenceISA_E4typeEE5valueEE4typeE_EEEOS9_OSA_
FNF:4
FNH:2
DA:228,5
DA:230,5
DA:231,0
DA:234,5
DA:241,2
DA:243,2
DA:244,0
DA:247,2
DA:419,0
DA:422,0
DA:427,0
DA:431,0
DA:433,0
LF:13
LH:6
end_of_record
TN:
SF:/home/aheguy/laba05/_build/_deps/googletest-src/googletest/include/gtest/gtest-assertion-result.h
FNL:0,155,161
FNA:0,9,_ZN7testing15AssertionResultC2IbEERKT_PNSt9enable_ifIXntsrSt14is_convertibleIS2_S0_E5valueEvE4typeE
FNL:1,174,174
FNA:1,9,_ZNK7testing15AssertionResultcvbEv
FNL:2,183,185
FNA:2,0,_ZNK7testing15AssertionResult7messageEv
FNL:3,187,187
FNA:3,0,_ZNK7testing15AssertionResult15failure_messageEv
FNF:4
FNH:2
DA:155,9
DA:161,9
DA:174,9
DA:183,0
DA:184,0
DA:187,0
LF:6
LH:3
end_of_record
TN:
SF:/home/aheguy/laba05/_build/_deps/googletest-src/googletest/include/gtest/gtest-matchers.h
FNL:0,109,109
FNA:0,0,_ZN7testing19MatchResultListenerD0Ev
FNA:0,3,_ZN7testing19MatchResultListenerD2Ev
FNL:1,115,115
FNA:1,0,_ZN7testing25MatcherDescriberInterfaceD0Ev
FNA:1,2,_ZN7testing25MatcherDescriberInterfaceD2Ev
FNL:2,130,134
FNA:2,0,_ZNK7testing25MatcherDescriberInterface18DescribeNegationToEPSo
FNL:3,221,221
FNA:3,3,_ZN7testing8internal24DummyMatchResultListenerC2Ev
FNL:4,244,244
FNA:4,0,_ZN7testing8internal17SharedPayloadBase3RefEv
FNL:5,245,245
FNA:5,0,_ZN7testing8internal17SharedPayloadBase5UnrefEv
FNL:6,268,271
FNA:6,3,_ZNK7testing8internal11MatcherBaseIRKSt5tupleIJEEE15MatchAndExplainES5_PNS_19MatchResultListenerE
FNA:6,0,_ZNK7testing8internal11MatcherBaseIRKSt5tupleIJiEEE15MatchAndExplainES5_PNS_19MatchResultListenerE
FNA:6,0,_ZNK7testing8internal11MatcherBaseIiE15MatchAndExplainERKiPNS_19MatchResultListenerE
FNL:7,274,277
FNA:7,3,_ZNK7testing8internal11MatcherBaseIRKSt5tupleIJEEE7MatchesES5_
FNA:7,0,_ZNK7testing8internal11MatcherBaseIRKSt5tupleIJiEEE7MatchesES5_
FNA:7,0,_ZNK7testing8internal11MatcherBaseIiE7MatchesERKi
FNL:8,280,283
FNA:8,0,_ZNK7testing8internal11MatcherBaseIRKSt5tupleIJEEE10DescribeToEPSo
FNA:8,0,_ZNK7testing8internal11MatcherBaseIRKSt5tupleIJiEEE10DescribeToEPSo
FNA:8,0,_ZNK7testing8internal11MatcherBaseIiE10DescribeToEPSo
FNL:9,286,289
FNA:9,0,_ZNK7testing8internal11MatcherBaseIRKSt5tupleIJEEE18DescribeNegationToEPSo
FNA:9,0,_ZNK7testing8internal11MatcherBaseIRKSt5tupleIJiEEE18DescribeNegationToEPSo
FNA:9,0,_ZNK7testing8internal11MatcherBaseIiE18DescribeNegationToEPSo
FNL:10,317,319
FNA:10,2,_ZN7testing8internal11MatcherBaseIRKSt5tupleIJEEEC2IRKNS0_15AnythingMatcherEvEEOT_
FNL:11,321,324
FNA:11,0,_ZN7testing8internal11MatcherBaseIiEC2ERKS2_
FNL:12,349,349
FNA:12,0,_ZN7testing8internal11MatcherBaseIRKSt5tupleIJEEED0Ev
FNA:12,2,_ZN7testing8internal11MatcherBaseIRKSt5tupleIJEEED2Ev
FNA:12,0,_ZN7testing8internal11MatcherBaseIRKSt5tupleIJiEEED0Ev
FNA:12,0,_ZN7testing8internal11MatcherBaseIRKSt5tupleIJiEEED2Ev
FNA:12,0,_ZN7testing8internal11MatcherBaseIiED0Ev
FNA:12,0,_ZN7testing8internal11MatcherBaseIiED2Ev
FNL:13,363,365
FNA:13,2,_ZNK7testing8internal11MatcherBaseIRKSt5tupleIJEEE8IsSharedEv
FNA:13,0,_ZNK7testing8internal11MatcherBaseIRKSt5tupleIJiEEE8IsSharedEv
FNA:13,0,_ZNK7testing8internal11MatcherBaseIiE8IsSharedEv
FNL:14,369,373
FNA:14,3,_ZN7testing8internal11MatcherBaseIRKSt5tupleIJEEE19MatchAndExplainImplINS6_11ValuePolicyINS0_15AnythingMatcherELb1EEEEEDTcldtclsrT_3Getfp_E15MatchAndExplainfp0_clptfp1_L_ZNS_19MatchResultListener6streamEvEEEERKS6_S5_PSC_
FNL:15,383,390
FNA:15,0,_ZN7testing8internal11MatcherBaseIRKSt5tupleIJEEE12DescribeImplINS6_11ValuePolicyINS0_15AnythingMatcherELb1EEEEEvRKS6_PSob
FNL:16,393,406
FNA:16,0,_ZN7testing8internal11MatcherBaseIRKSt5tupleIJEEE16GetDescriberImplINS6_11ValuePolicyINS0_15AnythingMatcherELb1EEEEEPKNS_25MatcherDescriberInterfaceERKS6_
FNL:17,409,414
FNA:17,2,_ZN7testing8internal11MatcherBaseIRKSt5tupleIJEEE9GetVTableINS6_11ValuePolicyINS0_15AnythingMatcherELb1EEEEEPKNS6_6VTableEv
FNL:18,425,429
FNA:18,2,_ZN7testing8internal11MatcherBaseIRKSt5tupleIJEEE7DestroyEv
FNA:18,0,_ZN7testing8internal11MatcherBaseIRKSt5tupleIJiEEE7DestroyEv
FNA:18,0,_ZN7testing8internal11MatcherBaseIiE7DestroyEv
FNL:19,440,446
FNA:19,3,_ZN7testing8internal11MatcherBaseIRKSt5tupleIJEEE11ValuePolicyINS0_15AnythingMatcherELb1EE3GetERKS6_
FNL:20,447,449
FNA:20,2,_ZN7testing8internal11MatcherBaseIRKSt5tupleIJEEE11ValuePolicyINS0_15AnythingMatcherELb1EE4InitERS6_S8_
FNL:21,481,486
FNA:21,2,_ZN7testing8internal11MatcherBaseIRKSt5tupleIJEEE4InitIRKNS0_15AnythingMatcherEEEvOT_
FNL:22,519,519
FNA:22,2,_ZN7testing7MatcherIRKSt5tupleIJEEEC2IRKNS_8internal15AnythingMatcherEvEEOT_
FNL:23,82,82
FNA:23,3,_ZN7testing19MatchResultListenerC2EPSo
FNL:24,94,94
FNA:24,3,_ZN7testing19MatchResultListener6streamEv
FNF:25
FNH:17
DA:82,3
DA:94,3
DA:109,3
DA:115,2
DA:130,0
DA:131,0
DA:132,0
DA:133,0
DA:134,0
DA:221,3
DA:244,0
DA:245,0
DA:268,3
DA:269,3
DA:270,3
DA:274,3
DA:275,3
DA:276,6
DA:277,3
DA:280,0
DA:281,0
DA:282,0
DA:283,0
DA:286,0
DA:287,0
DA:288,0
DA:289,0
DA:317,2
DA:318,2
DA:319,2
DA:321,0
DA:322,0
DA:323,0
DA:324,0
DA:349,2
DA:363,2
DA:364,2
DA:369,3
DA:372,3
DA:383,0
DA:385,0
DA:386,0
DA:388,0
DA:390,0
DA:393,0
DA:405,0
DA:409,2
DA:413,2
DA:425,2
DA:426,2
DA:427,0
DA:429,2
DA:440,3
DA:443,3
DA:445,3
DA:447,2
DA:448,2
DA:449,2
DA:481,2
DA:484,2
DA:485,2
DA:486,2
DA:519,4
LF:63
LH:36
end_of_record
TN:
SF:/home/aheguy/laba05/_build/_deps/googletest-src/googletest/include/gtest/gtest-printers.h
FNL:0,1035,1039
FNA:0,0,_ZN7testing13PrintToStringIiEENSt7__cxx1112basic_stringIcSt11char_traitsIcESaIcEEERKT_
FNL:1,213,217
FNA:1,0,_ZN7testing8internal52internal_stream_operator_without_lexical_name_lookup13StreamPrinter10PrintValueIivRSoEEvRKT_PSo
FNL:2,305,312
FNA:2,0,_ZN7testing8internal17PrintWithFallbackIiEEvRKT_PSo
FNL:3,332,334
FNA:3,0,_ZN7testing8internal19FormatForComparisonIiiE6FormatB5cxx11ERKi
FNL:4,412,415
FNA:4,0,_ZN7testing8internal33FormatForComparisonFailureMessageIiiEENSt7__cxx1112basic_stringIcSt11char_traitsIcESaIcEEERKT_RKT0_
FNL:5,439,441
FNA:5,0,_ZN7testing8internal7PrintToIiEEvRKT_PSo
FNL:6,646,647
FNA:6,0,_ZN7testing8internal12PrintTupleToISt5tupleIJEEEEvRKT_St17integral_constantImLm0EEPSo
FNA:6,0,_ZN7testing8internal12PrintTupleToISt5tupleIJiEEEEvRKT_St17integral_constantImLm0EEPSo
FNL:7,650,660
FNA:7,0,_ZN7testing8internal12PrintTupleToISt5tupleIJiEELm1EEEvRKT_St17integral_constantImXT0_EEPSo
FNL:8,663,667
FNA:8,0,_ZN7testing8internal7PrintToIJEEEvRKSt5tupleIJDpT_EEPSo
FNA:8,0,_ZN7testing8internal7PrintToIJiEEEvRKSt5tupleIJDpT_EEPSo
FNL:9,693,703
FNA:9,0,_ZN7testing8internal16UniversalPrinterISt5tupleIJEEE5PrintERKS3_PSo
FNA:9,0,_ZN7testing8internal16UniversalPrinterISt5tupleIJiEEE5PrintERKS3_PSo
FNA:9,0,_ZN7testing8internal16UniversalPrinterIiE5PrintERKiPSo
FNL:10,883,885
FNA:10,0,_ZN7testing8internal21UniversalTersePrinterIiE5PrintERKiPSo
FNL:11,995,1000
FNA:11,0,_ZN7testing8internal14UniversalPrintISt5tupleIJEEEEvRKT_PSo
FNA:11,0,_ZN7testing8internal14UniversalPrintISt5tupleIJiEEEEvRKT_PSo
FNA:11,0,_ZN7testing8internal14UniversalPrintIiEEvRKT_PSo
FNF:12
FNH:0
DA:213,0
DA:216,0
DA:217,0
DA:305,0
DA:311,0
DA:312,0
DA:332,0
DA:333,0
DA:412,0
DA:414,0
DA:439,0
DA:440,0
DA:441,0
DA:646,0
DA:647,0
DA:650,0
DA:652,0
DA:658,0
DA:659,0
DA:660,0
DA:663,0
DA:664,0
DA:665,0
DA:666,0
DA:667,0
DA:693,0
DA:702,0
DA:703,0
DA:883,0
DA:884,0
DA:885,0
DA:995,0
DA:999,0
DA:1000,0
DA:1035,0
DA:1036,0
DA:1037,0
DA:1038,0
DA:1039,0
LF:39
LH:0
end_of_record
TN:
SF:/home/aheguy/laba05/_build/_deps/googletest-src/googletest/include/gtest/gtest.h
FNL:0,1338,1344
FNA:0,0,_ZN7testing8internal18CmpHelperEQFailureIiiEENS_15AssertionResultEPKcS4_RKT_RKT0_
FNL:1,1355,1363
FNA:1,6,_ZN7testing8internal11CmpHelperEQIiiEENS_15AssertionResultEPKcS4_RKT_RKT0_
FNL:2,1374,1378
FNA:2,6,_ZN7testing8internal8EqHelper7CompareIiiLPv0EEENS_15AssertionResultEPKcS6_RKT_RKT0_
FNL:3,244,244
FNA:3,0,_ZN7testing4Test14SetUpTestSuiteEv
FNL:4,252,252
FNA:4,0,_ZN7testing4Test17TearDownTestSuiteEv
FNL:5,257,257
FNA:5,0,_ZN7testing4Test16TearDownTestCaseEv
FNL:6,258,258
FNA:6,0,_ZN7testing4Test13SetUpTestCaseEv
FNL:7,339,339
FNA:7,0,_ZN7testing4Test5SetupEv
FNF:8
FNH:2
DA:244,0
DA:252,0
DA:257,0
DA:258,0
DA:339,0
DA:1338,0
DA:1342,0
DA:1343,0
DA:1355,6
DA:1358,6
DA:1359,6
DA:1362,0
DA:1374,6
DA:1377,6
LF:14
LH:5
end_of_record
TN:
SF:/home/aheguy/laba05/_build/_deps/googletest-src/googletest/include/gtest/internal/gtest-internal.h
FNL:0,450,450
FNA:0,0,_ZN7testing8internal15TestFactoryBaseD0Ev
FNA:0,5,_ZN7testing8internal15TestFactoryBaseD2Ev
FNL:1,457,457
FNA:1,5,_ZN7testing8internal15TestFactoryBaseC2Ev
FNL:2,469,469
FNA:2,1,_ZN7testing8internal15TestFactoryImplI19Account_Locker_TestE10CreateTestEv
FNA:2,1,_ZN7testing8internal15TestFactoryImplI25Transaction_Negative_TestE10CreateTestEv
FNA:2,1,_ZN7testing8internal15TestFactoryImplI28Account_BalanceNegative_TestE10CreateTestEv
FNA:2,1,_ZN7testing8internal15TestFactoryImplI28Account_BalancePositive_TestE10CreateTestEv
FNA:2,1,_ZN7testing8internal15TestFactoryImplI37Transaction_ConstructAndPositive_TestE10CreateTestEv
FNL:3,490,491
FNA:3,5,_ZN7testing8internal12CodeLocationC2ERKNSt7__cxx1112basic_stringIcSt11char_traitsIcESaIcEEEi
FNL:4,503,506
FNA:4,20,_ZN7testing8internal19GetNotDefaultOrNullEPFvvES2_
FNL:5,518,537
FNA:5,5,_ZN7testing8internal16SuiteApiResolverINS_4TestEE19GetSetUpCaseOrSuiteEPKci
FNL:6,539,558
FNA:6,5,_ZN7testing8internal16SuiteApiResolverINS_4TestEE22GetTearDownCaseOrSuiteEPKci
FNL:7,856,856
FNA:7,5,_ZN7testing8internal14TrueWithStringC2Ev
FNL:8,859,859
FNA:8,5,_ZNK7testing8internal14TrueWithStringcvbEv
FNF:9
FNH:9
DA:450,5
DA:457,5
DA:469,10
DA:490,5
DA:491,5
DA:503,20
DA:505,20
DA:518,5
DA:522,5
DA:524,5
DA:526,5
DA:529,0
DA:531,5
DA:539,5
DA:543,5
DA:545,5
DA:547,5
DA:550,0
DA:552,5
DA:856,5
DA:859,5
LF:21
LH:19
end_of_record
TN:
SF:/home/aheguy/laba05/_build/_deps/googletest-src/googletest/include/gtest/internal/gtest-port.h
FNL:0,1116,1128
FNA:0,1,_ZN7testing8internal27CheckedDowncastToActualTypeINS0_11ThreadLocalIPNS_8SequenceEE11ValueHolderENS0_26ThreadLocalValueHolderBaseEEEPT_PT0_
FNL:1,1619,1623
FNA:1,32,_ZN7testing8internal9MutexBase4LockEv
FNL:2,1626,1633
FNA:2,32,_ZN7testing8internal9MutexBase6UnlockEv
FNL:3,1637,1640
FNA:3,52,_ZNK7testing8internal9MutexBase10AssertHeldEv
FNL:4,1694,1694
FNA:4,24,_ZN7testing8internal14GTestMutexLockC2EPNS0_9MutexBaseE
FNL:5,1696,1696
FNA:5,24,_ZN7testing8internal14GTestMutexLockD2Ev
FNL:6,1744,1744
FNA:6,2,_ZNK7testing8internal11ThreadLocalIPNS_8SequenceEE7pointerEv
FNL:7,1745,1745
FNA:7,2,_ZNK7testing8internal11ThreadLocalIPNS_8SequenceEE3getEv
FNL:8,1755,1755
FNA:8,2,_ZN7testing8internal11ThreadLocalIPNS_8SequenceEE11ValueHolder7pointerEv
FNL:9,1772,1783
FNA:9,2,_ZNK7testing8internal11ThreadLocalIPNS_8SequenceEE16GetOrCreateValueEv
FNL:10,967,967
FNA:10,0,_ZN7testing8internal8GTestLog9GetStreamEv
FNF:11
FNH:10
DA:967,0
DA:1116,1
DA:1118,1
DA:1124,1
DA:1619,32
DA:1620,32
DA:1621,32
DA:1622,32
DA:1623,32
DA:1626,32
DA:1631,32
DA:1632,32
DA:1633,32
DA:1637,52
DA:1638,52
DA:1639,0
DA:1640,52
DA:1694,24
DA:1696,24
DA:1744,2
DA:1745,2
DA:1755,2
DA:1772,2
DA:1774,2
DA:1775,2
DA:1776,1
DA:1779,1
DA:1780,1
DA:1781,1
DA:1782,1
LF:30
LH:28
end_of_record
TN:
SF:/home/aheguy/laba05/_build/_deps/googletest-src/googletest/include/gtest/internal/gtest-type-util.h
FNL:0,57,67
FNA:0,0,_ZN7testing8internal31CanonicalizeForStdLibVersioningENSt7__cxx1112basic_stringIcSt11char_traitsIcESaIcEEE
FNL:1,71,87
FNA:1,0,_ZN7testing8internal11GetTypeNameB5cxx11ERKSt9type_info
FNF:2
FNH:0
DA:57,0
DA:59,0
DA:60,0
DA:61,0
DA:63,0
DA:66,0
DA:71,0
DA:72,0
DA:74,0
DA:80,0
DA:81,0
DA:82,0
DA:83,0
DA:87,0
LF:14
LH:0
end_of_record
TN:
SF:/home/aheguy/laba05/banking/Account.cpp
FNL:0,10,10
FNA:0,8,_ZNK7Account10GetBalanceEv
FNL:1,12,15
FNA:1,4,_ZN7Account13ChangeBalanceEi
FNL:2,17,20
FNA:2,7,_ZN7Account4LockEv
FNL:3,22,22
FNA:3,4,_ZN7Account6UnlockEv
FNL:4,5,6
FNA:4,7,_ZN7AccountC2Eii
FNL:5,8,8
FNA:5,0,_ZN7AccountD0Ev
FNA:5,7,_ZN7AccountD2Ev
FNF:6
FNH:6
DA:5,7
DA:6,7
DA:8,7
DA:10,8
DA:12,4
DA:13,4
DA:14,3
DA:15,3
DA:17,7
DA:18,7
DA:19,6
DA:20,6
DA:22,4
LF:13
LH:13
end_of_record
TN:
SF:/home/aheguy/laba05/banking/Account.h
FNL:0,18,18
FNA:0,16,_ZNK7Account2idEv
FNF:1
FNH:1
DA:18,16
LF:1
LH:1
end_of_record
TN:
SF:/home/aheguy/laba05/banking/Transaction.cpp
FNL:0,12,12
FNA:0,4,_ZN12_GLOBAL__N_15GuardC2ER7Account
FNL:1,14,14
FNA:1,4,_ZN12_GLOBAL__N_15GuardD2Ev
FNL:2,21,21
FNA:2,2,_ZN11TransactionC2Ev
FNL:3,23,23
FNA:3,0,_ZN11TransactionD0Ev
FNA:3,2,_ZN11TransactionD2Ev
FNL:4,25,47
FNA:4,6,_ZN11Transaction4MakeER7AccountS1_i
FNL:5,49,52
FNA:5,1,_ZN11Transaction6CreditER7Accounti
FNL:6,54,61
FNA:6,2,_ZN11Transaction5DebitER7Accounti
FNL:7,63,68
FNA:7,1,_ZN11Transaction14SaveToDataBaseER7AccountS1_i
FNF:8
FNH:8
DA:12,4
DA:14,4
DA:21,2
DA:23,2
DA:25,6
DA:26,6
DA:28,5
DA:30,4
DA:32,3
DA:34,2
DA:35,2
DA:38,2
DA:39,1
DA:43,1
DA:45,1
DA:46,1
DA:47,2
DA:49,1
DA:50,1
DA:51,1
DA:52,1
DA:54,2
DA:55,2
DA:56,2
DA:57,1
DA:58,1
DA:60,1
DA:63,1
DA:64,1
DA:65,1
DA:66,1
DA:67,1
DA:68,1
LF:33
LH:33
end_of_record
TN:
SF:/home/aheguy/laba05/banking/Transaction.h
FNL:0,11,11
FNA:0,2,_ZNK11Transaction3feeEv
FNL:1,12,12
FNA:1,3,_ZN11Transaction7set_feeEi
FNF:2
FNH:2
DA:11,2
DA:12,3
LF:2
LH:2
end_of_record
TN:
SF:/home/aheguy/laba05/tests/tests.cpp
FNL:0,14,14
FNA:0,1,_ZN9MyAccountC2Eii
FNL:1,16,16
FNA:1,0,_ZNK9MyAccount10GetBalanceEv
FNL:2,17,17
FNA:2,0,_ZN9MyAccount13ChangeBalanceEi
FNL:3,18,18
FNA:3,1,_ZN9MyAccount10gmock_LockEv
FNA:3,2,_ZN9MyAccount4LockEv
FNL:4,19,19
FNA:4,1,_ZN9MyAccount12gmock_UnlockEv
FNA:4,1,_ZN9MyAccount6UnlockEv
FNL:5,24,31
FNA:5,1,_ZN19Account_Locker_Test8TestBodyEv
FNA:5,1,_ZN19Account_Locker_TestC2Ev
FNA:5,1,_ZN19Account_Locker_TestD0Ev
FNA:5,1,_ZN19Account_Locker_TestD2Ev
FNL:6,33,41
FNA:6,1,_ZN28Account_BalancePositive_Test8TestBodyEv
FNA:6,1,_ZN28Account_BalancePositive_TestC2Ev
FNA:6,1,_ZN28Account_BalancePositive_TestD0Ev
FNA:6,1,_ZN28Account_BalancePositive_TestD2Ev
FNL:7,43,50
FNA:7,1,_ZN28Account_BalanceNegative_Test8TestBodyEv
FNA:7,1,_ZN28Account_BalanceNegative_TestC2Ev
FNA:7,1,_ZN28Account_BalanceNegative_TestD0Ev
FNA:7,1,_ZN28Account_BalanceNegative_TestD2Ev
FNL:8,54,67
FNA:8,1,_ZN37Transaction_ConstructAndPositive_Test8TestBodyEv
FNA:8,1,_ZN37Transaction_ConstructAndPositive_TestC2Ev
FNA:8,1,_ZN37Transaction_ConstructAndPositive_TestD0Ev
FNA:8,1,_ZN37Transaction_ConstructAndPositive_TestD2Ev
FNL:9,69,86
FNA:9,1,_ZN25Transaction_Negative_Test8TestBodyEv
FNA:9,1,_ZN25Transaction_Negative_TestC2Ev
FNA:9,1,_ZN25Transaction_Negative_TestD0Ev
FNA:9,1,_ZN25Transaction_Negative_TestD2Ev
FNF:10
FNH:8
DA:14,1
DA:16,0
DA:17,0
DA:18,3
DA:19,2
DA:24,4
DA:25,1
DA:26,1
DA:27,1
DA:28,1
DA:29,1
DA:30,1
DA:31,1
DA:33,4
DA:34,1
DA:35,1
DA:37,1
DA:38,1
DA:40,1
DA:41,1
DA:43,4
DA:44,1
DA:46,1
DA:48,1
DA:49,1
DA:50,1
DA:54,4
DA:55,1
DA:56,1
DA:58,2
DA:59,2
DA:61,1
DA:62,1
DA:64,1
DA:65,1
DA:66,1
DA:67,1
DA:69,4
DA:70,1
DA:71,1
DA:72,1
DA:73,1
DA:75,1
DA:77,1
DA:79,1
DA:81,1
DA:83,1
DA:85,1
DA:86,1
LF:49
LH:47
end_of_record
